; Function Attrs: mustprogress uwtable
define noundef range(i64 -2147483648, 2147483648) i64 @_ZNK8QuantLib9Thirty3607IT_Impl8dayCountERKNS_4DateES4_(ptr nocapture nonnull readnone align 8 %this, ptr noundef nonnull align 8 dereferenceable(8) %d1, ptr noundef nonnull align 8 dereferenceable(8) %d2) unnamed_addr #0 align 2 {
entry:
  %0 = load i64, ptr %d1, align 8, !tbaa !20
  %call.i.i = tail call noundef i32 @_ZNK8QuantLib4Date4yearEv(ptr noundef nonnull align 8 dereferenceable(8) %d1)
  %call2.i.i = tail call noundef i64 @_ZN8QuantLib4Date10yearOffsetEi(i32 noundef %call.i.i)
  %sub.i.i = sub nsw i64 %0, %call2.i.i
  %conv.i.i = trunc i64 %sub.i.i to i32
  %call2.i = tail call noundef i32 @_ZNK8QuantLib4Date5monthEv(ptr noundef nonnull align 8 dereferenceable(8) %d1)
  %call3.i = tail call noundef i32 @_ZNK8QuantLib4Date4yearEv(ptr noundef nonnull align 8 dereferenceable(8) %d1)
  %call4.i = tail call noundef zeroext i1 @_ZN8QuantLib4Date6isLeapEi(i32 noundef %call3.i)
  %call5.i = tail call noundef i32 @_ZN8QuantLib4Date11monthOffsetENS_5MonthEb(i32 noundef %call2.i, i1 noundef zeroext %call4.i)
  %sub.i = sub nsw i32 %conv.i.i, %call5.i
  %1 = load i64, ptr %d2, align 8, !tbaa !20
  %call.i.i15 = tail call noundef i32 @_ZNK8QuantLib4Date4yearEv(ptr noundef nonnull align 8 dereferenceable(8) %d2)
  %call2.i.i16 = tail call noundef i64 @_ZN8QuantLib4Date10yearOffsetEi(i32 noundef %call.i.i15)
  %sub.i.i17 = sub nsw i64 %1, %call2.i.i16
  %conv.i.i18 = trunc i64 %sub.i.i17 to i32
  %call2.i19 = tail call noundef i32 @_ZNK8QuantLib4Date5monthEv(ptr noundef nonnull align 8 dereferenceable(8) %d2)
  %call3.i20 = tail call noundef i32 @_ZNK8QuantLib4Date4yearEv(ptr noundef nonnull align 8 dereferenceable(8) %d2)
  %call4.i21 = tail call noundef zeroext i1 @_ZN8QuantLib4Date6isLeapEi(i32 noundef %call3.i20)
  %call5.i22 = tail call noundef i32 @_ZN8QuantLib4Date11monthOffsetENS_5MonthEb(i32 noundef %call2.i19, i1 noundef zeroext %call4.i21)
  %sub.i23 = sub nsw i32 %conv.i.i18, %call5.i22
  %call3 = tail call noundef i32 @_ZNK8QuantLib4Date5monthEv(ptr noundef nonnull align 8 dereferenceable(8) %d1)
  %call4 = tail call noundef i32 @_ZNK8QuantLib4Date5monthEv(ptr noundef nonnull align 8 dereferenceable(8) %d2)
  %call5 = tail call noundef i32 @_ZNK8QuantLib4Date4yearEv(ptr noundef nonnull align 8 dereferenceable(8) %d1)
  %call6 = tail call noundef i32 @_ZNK8QuantLib4Date4yearEv(ptr noundef nonnull align 8 dereferenceable(8) %d2)
  %cmp = icmp eq i32 %sub.i, 31
  %spec.store.select = select i1 %cmp, i32 30, i32 %sub.i
  %cmp7 = icmp eq i32 %sub.i23, 31
  %spec.store.select2 = select i1 %cmp7, i32 30, i32 %sub.i23
  %cmp10 = icmp eq i32 %call3, 2
  %cmp11 = icmp sgt i32 %spec.store.select, 27
  %or.cond = and i1 %cmp11, %cmp10
  %spec.store.select4 = select i1 %or.cond, i32 30, i32 %spec.store.select
  %cmp14 = icmp eq i32 %call4, 2
  %cmp16 = icmp sgt i32 %spec.store.select2, 27
  %or.cond1 = and i1 %cmp14, %cmp16
  %spec.store.select3 = select i1 %or.cond1, i32 30, i32 %spec.store.select2
  %sub = sub nsw i32 %call6, %call5
  %mul = mul nsw i32 %sub, 360
  %sub19 = sub nsw i32 %call4, %call3
  %mul20 = mul nsw i32 %sub19, 30
  %sub21 = sub i32 %mul20, %spec.store.select4
  %add = add i32 %sub21, %mul
  %add22 = add i32 %add, %spec.store.select3
  %conv = sext i32 %add22 to i64
  ret i64 %conv
}